target datalayout = "e-m:e-p270:32:32-p271:32:32-p272:64:64-i64:64-i128:128-f80:128-n8:16:32:64-S128"
target triple = "x86_64-pc-linux-gnu"

%struct.prov_aes_ocb_ctx_st = type { %struct.prov_cipher_ctx_st, %union.anon.0, %union.anon.1, %struct.ocb128_context, i32, i8, i64, i64, i64, [16 x i8], [16 x i8], [16 x i8] }
%struct.prov_cipher_ctx_st = type { [16 x i8], [16 x i8], [16 x i8], ptr, %union.anon, i32, i64, i64, i64, i64, i32, i8, i32, ptr, i32, i64, i32, i64, i32, ptr, ptr, ptr }
%union.anon = type { ptr }
%union.anon.0 = type { double, [240 x i8] }
%union.anon.1 = type { double, [240 x i8] }
%struct.ocb128_context = type { ptr, ptr, ptr, ptr, ptr, i64, i64, %union.OCB_BLOCK, %union.OCB_BLOCK, ptr, %struct.anon }
%union.OCB_BLOCK = type { [2 x i64] }
%struct.anon = type { i64, i64, %union.OCB_BLOCK, %union.OCB_BLOCK, %union.OCB_BLOCK, %union.OCB_BLOCK }

; Function Attrs: inlinehint nounwind uwtable
define internal i32 @aes_generic_ocb_setiv(ptr noundef %0, ptr noundef %1, i64 noundef %2, i64 noundef %3) #3 {
  %5 = alloca ptr, align 8
  %6 = alloca ptr, align 8
  %7 = alloca i64, align 8
  %8 = alloca i64, align 8
  store ptr %0, ptr %5, align 8, !tbaa !15
  store ptr %1, ptr %6, align 8, !tbaa !7
  store i64 %2, ptr %7, align 8, !tbaa !9
  store i64 %3, ptr %8, align 8, !tbaa !9
  %9 = load ptr, ptr %5, align 8, !tbaa !15
  %10 = getelementptr inbounds nuw %struct.prov_aes_ocb_ctx_st, ptr %9, i32 0, i32 3
  %11 = load ptr, ptr %6, align 8, !tbaa !7
  %12 = load i64, ptr %7, align 8, !tbaa !9
  %13 = load i64, ptr %8, align 8, !tbaa !9
  %14 = call i32 @CRYPTO_ocb128_setiv(ptr noundef %10, ptr noundef %11, i64 noundef %12, i64 noundef %13)
  %15 = icmp eq i32 %14, 1
  %16 = zext i1 %15 to i32
  ret i32 %16
}

; Function Attrs: nounwind uwtable
define internal i32 @update_iv(ptr noundef %0) #0 {
  %2 = alloca i32, align 4
  %3 = alloca ptr, align 8
  store ptr %0, ptr %3, align 8, !tbaa !15
  %4 = load ptr, ptr %3, align 8, !tbaa !15
  %5 = getelementptr inbounds nuw %struct.prov_aes_ocb_ctx_st, ptr %4, i32 0, i32 4
  %6 = load i32, ptr %5, align 8, !tbaa !28
  %7 = icmp eq i32 %6, 3
  br i1 %7, label %13, label %8

8:                                                ; preds = %1
  %9 = load ptr, ptr %3, align 8, !tbaa !15
  %10 = getelementptr inbounds nuw %struct.prov_aes_ocb_ctx_st, ptr %9, i32 0, i32 4
  %11 = load i32, ptr %10, align 8, !tbaa !28
  %12 = icmp eq i32 %11, 0
  br i1 %12, label %13, label %14

13:                                               ; preds = %8, %1
  store i32 0, ptr %2, align 4
  br label %39

14:                                               ; preds = %8
  %15 = load ptr, ptr %3, align 8, !tbaa !15
  %16 = getelementptr inbounds nuw %struct.prov_aes_ocb_ctx_st, ptr %15, i32 0, i32 4
  %17 = load i32, ptr %16, align 8, !tbaa !28
  %18 = icmp eq i32 %17, 1
  br i1 %18, label %19, label %38

19:                                               ; preds = %14
  %20 = load ptr, ptr %3, align 8, !tbaa !15
  %21 = load ptr, ptr %3, align 8, !tbaa !15
  %22 = getelementptr inbounds nuw %struct.prov_aes_ocb_ctx_st, ptr %21, i32 0, i32 0
  %23 = getelementptr inbounds nuw %struct.prov_cipher_ctx_st, ptr %22, i32 0, i32 2
  %24 = getelementptr inbounds [16 x i8], ptr %23, i64 0, i64 0
  %25 = load ptr, ptr %3, align 8, !tbaa !15
  %26 = getelementptr inbounds nuw %struct.prov_aes_ocb_ctx_st, ptr %25, i32 0, i32 0
  %27 = getelementptr inbounds nuw %struct.prov_cipher_ctx_st, ptr %26, i32 0, i32 7
  %28 = load i64, ptr %27, align 8, !tbaa !35
  %29 = load ptr, ptr %3, align 8, !tbaa !15
  %30 = getelementptr inbounds nuw %struct.prov_aes_ocb_ctx_st, ptr %29, i32 0, i32 6
  %31 = load i64, ptr %30, align 8, !tbaa !27
  %32 = call i32 @aes_generic_ocb_setiv(ptr noundef %20, ptr noundef %24, i64 noundef %28, i64 noundef %31)
  %33 = icmp ne i32 %32, 0
  br i1 %33, label %35, label %34

34:                                               ; preds = %19
  store i32 0, ptr %2, align 4
  br label %39

35:                                               ; preds = %19
  %36 = load ptr, ptr %3, align 8, !tbaa !15
  %37 = getelementptr inbounds nuw %struct.prov_aes_ocb_ctx_st, ptr %36, i32 0, i32 4
  store i32 2, ptr %37, align 8, !tbaa !28
  br label %38

38:                                               ; preds = %35, %14
  store i32 1, ptr %2, align 4
  br label %39

39:                                               ; preds = %38, %34, %13
  %40 = load i32, ptr %2, align 4
  ret i32 %40
}

; Function Attrs: nounwind uwtable
define internal i32 @aes_ocb_block_update(ptr noundef %0, ptr noundef %1, ptr noundef %2, i64 noundef %3, ptr noundef %4, i64 noundef %5) #0 {
  %7 = alloca i32, align 4
  %8 = alloca ptr, align 8
  %9 = alloca ptr, align 8
  %10 = alloca ptr, align 8
  %11 = alloca i64, align 8
  %12 = alloca ptr, align 8
  %13 = alloca i64, align 8
  %14 = alloca ptr, align 8
  %15 = alloca ptr, align 8
  %16 = alloca ptr, align 8
  %17 = alloca ptr, align 8
  %18 = alloca i32, align 4
  store ptr %0, ptr %8, align 8, !tbaa !3
  store ptr %1, ptr %9, align 8, !tbaa !7
  store ptr %2, ptr %10, align 8, !tbaa !13
  store i64 %3, ptr %11, align 8, !tbaa !9
  store ptr %4, ptr %12, align 8, !tbaa !7
  store i64 %5, ptr %13, align 8, !tbaa !9
  call void @llvm.lifetime.start.p0(i64 8, ptr %14) #5
  %19 = load ptr, ptr %8, align 8, !tbaa !3
  store ptr %19, ptr %14, align 8, !tbaa !15
  call void @llvm.lifetime.start.p0(i64 8, ptr %15) #5
  call void @llvm.lifetime.start.p0(i64 8, ptr %16) #5
  call void @llvm.lifetime.start.p0(i64 8, ptr %17) #5
  %20 = load ptr, ptr %14, align 8, !tbaa !15
  %21 = getelementptr inbounds nuw %struct.prov_aes_ocb_ctx_st, ptr %20, i32 0, i32 5
  %22 = load i8, ptr %21, align 4
  %23 = and i8 %22, 1
  %24 = zext i8 %23 to i32
  %25 = icmp ne i32 %24, 0
  br i1 %25, label %26, label %30

26:                                               ; preds = %6
  %27 = load ptr, ptr %14, align 8, !tbaa !15
  %28 = call i32 @update_iv(ptr noundef %27)
  %29 = icmp ne i32 %28, 0
  br i1 %29, label %31, label %30

30:                                               ; preds = %26, %6
  store i32 0, ptr %7, align 4
  store i32 1, ptr %18, align 4
  br label %62

31:                                               ; preds = %26
  %32 = load i64, ptr %13, align 8, !tbaa !9
  %33 = icmp eq i64 %32, 0
  br i1 %33, label %34, label %36

34:                                               ; preds = %31
  %35 = load ptr, ptr %10, align 8, !tbaa !13
  store i64 0, ptr %35, align 8, !tbaa !9
  store i32 1, ptr %7, align 4
  store i32 1, ptr %18, align 4
  br label %62

36:                                               ; preds = %31
  %37 = load ptr, ptr %9, align 8, !tbaa !7
  %38 = icmp eq ptr %37, null
  br i1 %38, label %39, label %45

39:                                               ; preds = %36
  %40 = load ptr, ptr %14, align 8, !tbaa !15
  %41 = getelementptr inbounds nuw %struct.prov_aes_ocb_ctx_st, ptr %40, i32 0, i32 11
  %42 = getelementptr inbounds [16 x i8], ptr %41, i64 0, i64 0
  store ptr %42, ptr %15, align 8, !tbaa !7
  %43 = load ptr, ptr %14, align 8, !tbaa !15
  %44 = getelementptr inbounds nuw %struct.prov_aes_ocb_ctx_st, ptr %43, i32 0, i32 8
  store ptr %44, ptr %16, align 8, !tbaa !13
  store ptr @cipher_updateaad, ptr %17, align 8, !tbaa !3
  br label %51

45:                                               ; preds = %36
  %46 = load ptr, ptr %14, align 8, !tbaa !15
  %47 = getelementptr inbounds nuw %struct.prov_aes_ocb_ctx_st, ptr %46, i32 0, i32 10
  %48 = getelementptr inbounds [16 x i8], ptr %47, i64 0, i64 0
  store ptr %48, ptr %15, align 8, !tbaa !7
  %49 = load ptr, ptr %14, align 8, !tbaa !15
  %50 = getelementptr inbounds nuw %struct.prov_aes_ocb_ctx_st, ptr %49, i32 0, i32 7
  store ptr %50, ptr %16, align 8, !tbaa !13
  store ptr @aes_generic_ocb_cipher, ptr %17, align 8, !tbaa !3
  br label %51

51:                                               ; preds = %45, %39
  %52 = load ptr, ptr %14, align 8, !tbaa !15
  %53 = load ptr, ptr %15, align 8, !tbaa !7
  %54 = load ptr, ptr %16, align 8, !tbaa !13
  %55 = load ptr, ptr %9, align 8, !tbaa !7
  %56 = load ptr, ptr %10, align 8, !tbaa !13
  %57 = load i64, ptr %11, align 8, !tbaa !9
  %58 = load ptr, ptr %12, align 8, !tbaa !7
  %59 = load i64, ptr %13, align 8, !tbaa !9
  %60 = load ptr, ptr %17, align 8, !tbaa !3
  %61 = call i32 @aes_ocb_block_update_internal(ptr noundef %52, ptr noundef %53, ptr noundef %54, ptr noundef %55, ptr noundef %56, i64 noundef %57, ptr noundef %58, i64 noundef %59, ptr noundef %60)
  store i32 %61, ptr %7, align 4
  store i32 1, ptr %18, align 4
  br label %62

62:                                               ; preds = %51, %34, %30
  call void @llvm.lifetime.end.p0(i64 8, ptr %17) #5
  call void @llvm.lifetime.end.p0(i64 8, ptr %16) #5
  call void @llvm.lifetime.end.p0(i64 8, ptr %15) #5
  call void @llvm.lifetime.end.p0(i64 8, ptr %14) #5
  %63 = load i32, ptr %7, align 4
  ret i32 %63
}