; Function Attrs: nounwind uwtable
define internal range(i32 0, 2) i32 @aes_ocb_block_update(ptr noundef %0, ptr noundef %1, ptr noundef writeonly captures(none) %2, i64 noundef %3, ptr noundef %4, i64 noundef %5) #0 {
  %7 = getelementptr inbounds nuw i8, ptr %0, i64 868
  %8 = load i8, ptr %7, align 4
  %9 = and i8 %8, 1
  %.not = icmp eq i8 %9, 0
  br i1 %.not, label %update_iv.exit.thread, label %10

10:                                               ; preds = %6
  %11 = getelementptr inbounds nuw i8, ptr %0, i64 864
  %12 = load i32, ptr %11, align 8, !tbaa !17
  switch i32 %12, label %update_iv.exit [
    i32 3, label %update_iv.exit.thread
    i32 0, label %update_iv.exit.thread
    i32 1, label %13
  ]

13:                                               ; preds = %10
  %14 = getelementptr inbounds nuw i8, ptr %0, i64 32
  %15 = getelementptr inbounds nuw i8, ptr %0, i64 80
  %16 = load i64, ptr %15, align 8, !tbaa !18
  %17 = getelementptr inbounds nuw i8, ptr %0, i64 872
  %18 = load i64, ptr %17, align 8, !tbaa !3
  %19 = getelementptr inbounds nuw i8, ptr %0, i64 688
  %20 = tail call i32 @CRYPTO_ocb128_setiv(ptr noundef nonnull %19, ptr noundef nonnull %14, i64 noundef %16, i64 noundef %18) #7
  %.not.i = icmp eq i32 %20, 1
  br i1 %.not.i, label %21, label %update_iv.exit.thread

21:                                               ; preds = %13
  store i32 2, ptr %11, align 8, !tbaa !17
  br label %update_iv.exit

update_iv.exit:                                   ; preds = %21, %10
  %22 = icmp eq i64 %5, 0
  br i1 %22, label %23, label %24

23:                                               ; preds = %update_iv.exit
  store i64 0, ptr %2, align 8, !tbaa !19
  br label %update_iv.exit.thread

24:                                               ; preds = %update_iv.exit
  %25 = icmp eq ptr %1, null
  br i1 %25, label %.split, label %.split23

.split:                                           ; preds = %24
  %26 = getelementptr inbounds nuw i8, ptr %0, i64 888
  %27 = getelementptr inbounds nuw i8, ptr %0, i64 928
  %28 = tail call fastcc i32 @aes_ocb_block_update_internal(ptr noundef nonnull %0, ptr noundef nonnull %27, ptr noundef nonnull %26, ptr noundef null, ptr noundef %2, i64 noundef %3, ptr noundef %4, i64 noundef %5, ptr noundef nonnull @cipher_updateaad)
  br label %update_iv.exit.thread

.split23:                                         ; preds = %24
  %29 = getelementptr inbounds nuw i8, ptr %0, i64 880
  %30 = getelementptr inbounds nuw i8, ptr %0, i64 912
  %31 = tail call fastcc i32 @aes_ocb_block_update_internal(ptr noundef nonnull %0, ptr noundef nonnull %30, ptr noundef nonnull %29, ptr noundef nonnull %1, ptr noundef %2, i64 noundef %3, ptr noundef %4, i64 noundef %5, ptr noundef nonnull @aes_generic_ocb_cipher)
  br label %update_iv.exit.thread

update_iv.exit.thread:                            ; preds = %13, %10, %10, %.split, %.split23, %6, %23
  %.021 = phi i32 [ 1, %23 ], [ 0, %6 ], [ %28, %.split ], [ %31, %.split23 ], [ 0, %10 ], [ 0, %10 ], [ 0, %13 ]
  ret i32 %.021
}